target datalayout = "e-m:e-p270:32:32-p271:32:32-p272:64:64-i64:64-i128:128-f80:128-n8:16:32:64-S128"
target triple = "x86_64-pc-linux-gnu"

%struct.InputFile = type { ptr, ptr, i32 }
%struct.AVFormatContext = type { ptr, ptr, ptr, ptr, ptr, i32, i32, ptr, i32, ptr, i32, ptr, ptr, i64, i64, i64, i32, i32, i32, i64, i64, ptr, i32, i32, ptr, i32, i32, i32, i32, ptr, i64, i32, i32, %struct.AVIOInterruptCB, i32, i32, i32, i32, i64, i32, i32, i32, i32, i32, i32, i32, i32, i32, i32, i32, i32, i64, i32, i32, i32, i32, i32, ptr, ptr, ptr, ptr, i32, ptr, ptr, ptr, ptr, i32, ptr, ptr, i64, ptr, ptr, ptr, i64 }
%struct.AVIOInterruptCB = type { ptr, ptr }
%struct.ReadInterval = type { i32, i64, i64, i32, i32, i32, i32, i32 }

@read_intervals = internal global ptr null, align 8
@read_intervals_nb = internal global i32 0, align 4

; Function Attrs: nounwind uwtable
define internal i32 @read_packets(ptr noundef %0, ptr noundef %1) #0 {
  %3 = alloca ptr, align 8
  %4 = alloca ptr, align 8
  %5 = alloca ptr, align 8
  %6 = alloca i32, align 4
  %7 = alloca i32, align 4
  %8 = alloca i64, align 8
  %9 = alloca %struct.ReadInterval, align 8
  store ptr %0, ptr %3, align 8, !tbaa !28
  store ptr %1, ptr %4, align 8, !tbaa !158
  call void @llvm.lifetime.start.p0(i64 8, ptr %5) #14
  %10 = load ptr, ptr %4, align 8, !tbaa !158
  %11 = getelementptr inbounds nuw %struct.InputFile, ptr %10, i32 0, i32 0
  %12 = load ptr, ptr %11, align 8, !tbaa !83
  store ptr %12, ptr %5, align 8, !tbaa !160
  call void @llvm.lifetime.start.p0(i64 4, ptr %6) #14
  call void @llvm.lifetime.start.p0(i64 4, ptr %7) #14
  store i32 0, ptr %7, align 4, !tbaa !11
  call void @llvm.lifetime.start.p0(i64 8, ptr %8) #14
  %13 = load ptr, ptr %5, align 8, !tbaa !160
  %14 = getelementptr inbounds nuw %struct.AVFormatContext, ptr %13, i32 0, i32 13
  %15 = load i64, ptr %14, align 8, !tbaa !185
  store i64 %15, ptr %8, align 8, !tbaa !114
  %16 = load i32, ptr @read_intervals_nb, align 4, !tbaa !11
  %17 = icmp eq i32 %16, 0
  br i1 %17, label %18, label %22

18:                                               ; preds = %2
  call void @llvm.lifetime.start.p0(i64 48, ptr %9) #14
  call void @llvm.memset.p0.i64(ptr align 8 %9, i8 0, i64 48, i1 false)
  %19 = load ptr, ptr %3, align 8, !tbaa !28
  %20 = load ptr, ptr %4, align 8, !tbaa !158
  %21 = call i32 @read_interval_packets(ptr noundef %19, ptr noundef %20, ptr noundef %9, ptr noundef %8)
  store i32 %21, ptr %7, align 4, !tbaa !11
  call void @llvm.lifetime.end.p0(i64 48, ptr %9) #14
  br label %43

22:                                               ; preds = %2
  store i32 0, ptr %6, align 4, !tbaa !11
  br label %23

23:                                               ; preds = %39, %22
  %24 = load i32, ptr %6, align 4, !tbaa !11
  %25 = load i32, ptr @read_intervals_nb, align 4, !tbaa !11
  %26 = icmp slt i32 %24, %25
  br i1 %26, label %27, label %42

27:                                               ; preds = %23
  %28 = load ptr, ptr %3, align 8, !tbaa !28
  %29 = load ptr, ptr %4, align 8, !tbaa !158
  %30 = load ptr, ptr @read_intervals, align 8, !tbaa !129
  %31 = load i32, ptr %6, align 4, !tbaa !11
  %32 = sext i32 %31 to i64
  %33 = getelementptr inbounds %struct.ReadInterval, ptr %30, i64 %32
  %34 = call i32 @read_interval_packets(ptr noundef %28, ptr noundef %29, ptr noundef %33, ptr noundef %8)
  store i32 %34, ptr %7, align 4, !tbaa !11
  %35 = load i32, ptr %7, align 4, !tbaa !11
  %36 = icmp slt i32 %35, 0
  br i1 %36, label %37, label %38

37:                                               ; preds = %27
  br label %42

38:                                               ; preds = %27
  br label %39

39:                                               ; preds = %38
  %40 = load i32, ptr %6, align 4, !tbaa !11
  %41 = add nsw i32 %40, 1
  store i32 %41, ptr %6, align 4, !tbaa !11
  br label %23, !llvm.loop !186

42:                                               ; preds = %37, %23
  br label %43

43:                                               ; preds = %42, %18
  %44 = load i32, ptr %7, align 4, !tbaa !11
  call void @llvm.lifetime.end.p0(i64 8, ptr %8) #14
  call void @llvm.lifetime.end.p0(i64 4, ptr %7) #14
  call void @llvm.lifetime.end.p0(i64 4, ptr %6) #14
  call void @llvm.lifetime.end.p0(i64 8, ptr %5) #14
  ret i32 %44
}