; Function Attrs: nounwind uwtable
define internal fastcc i32 @read_packets(ptr noundef %0, ptr noundef nonnull readonly captures(none) %1) unnamed_addr #0 {
  %3 = alloca i64, align 8
  %4 = alloca %struct.ReadInterval, align 8
  %5 = load ptr, ptr %1, align 8, !tbaa !87
  call void @llvm.lifetime.start.p0(i64 8, ptr nonnull %3) #20
  %6 = getelementptr inbounds nuw i8, ptr %5, i64 96
  %7 = load i64, ptr %6, align 8, !tbaa !159
  store i64 %7, ptr %3, align 8, !tbaa !146
  %8 = load i32, ptr @read_intervals_nb, align 4, !tbaa !11
  %9 = icmp eq i32 %8, 0
  br i1 %9, label %11, label %.preheader

.preheader:                                       ; preds = %2
  %10 = icmp sgt i32 %8, 0
  br i1 %10, label %.lr.ph, label %.loopexit

11:                                               ; preds = %2
  call void @llvm.lifetime.start.p0(i64 48, ptr nonnull %4) #20
  call void @llvm.memset.p0.i64(ptr noundef nonnull align 8 dereferenceable(48) %4, i8 0, i64 48, i1 false)
  %12 = call fastcc i32 @read_interval_packets(ptr noundef %0, ptr noundef %1, ptr noundef nonnull %4, ptr noundef %3)
  call void @llvm.lifetime.end.p0(i64 48, ptr nonnull %4) #20
  br label %.loopexit

13:                                               ; preds = %.lr.ph
  %indvars.iv.next = add nuw nsw i64 %indvars.iv, 1
  %14 = load i32, ptr @read_intervals_nb, align 4, !tbaa !11
  %15 = sext i32 %14 to i64
  %16 = icmp slt i64 %indvars.iv.next, %15
  br i1 %16, label %.lr.ph, label %.loopexit, !llvm.loop !160

.lr.ph:                                           ; preds = %.preheader, %13
  %indvars.iv = phi i64 [ %indvars.iv.next, %13 ], [ 0, %.preheader ]
  %17 = load ptr, ptr @read_intervals, align 8, !tbaa !137
  %18 = getelementptr inbounds nuw %struct.ReadInterval, ptr %17, i64 %indvars.iv
  %19 = call fastcc i32 @read_interval_packets(ptr noundef %0, ptr noundef %1, ptr noundef %18, ptr noundef %3)
  %20 = icmp slt i32 %19, 0
  br i1 %20, label %.loopexit, label %13

.loopexit:                                        ; preds = %.lr.ph, %13, %.preheader, %11
  %.0 = phi i32 [ %12, %11 ], [ 0, %.preheader ], [ %19, %13 ], [ %19, %.lr.ph ]
  call void @llvm.lifetime.end.p0(i64 8, ptr nonnull %3) #20
  ret i32 %.0
}